target datalayout = "e-m:e-p270:32:32-p271:32:32-p272:64:64-i64:64-i128:128-f80:128-n8:16:32:64-S128"
target triple = "x86_64-pc-linux-gnu"

%struct.emap_alloc_ctx_t = type { i32, i8 }

@duckdb_je_sz_size2index_tab = external global [0 x i8], align 1

; Function Attrs: inlinehint nounwind uwtable
define internal i32 @fls_lu(i64 noundef %0) #5 {
  %2 = alloca i64, align 8
  store i64 %0, ptr %2, align 8, !tbaa !10
  %3 = load i64, ptr %2, align 8, !tbaa !10
  %4 = icmp ne i64 %3, 0
  call void @llvm.assume(i1 %4)
  %5 = load i64, ptr %2, align 8, !tbaa !10
  %6 = call i64 @llvm.ctlz.i64(i64 %5, i1 true)
  %7 = trunc i64 %6 to i32
  %8 = sext i32 %7 to i64
  %9 = xor i64 63, %8
  %10 = trunc i64 %9 to i32
  ret i32 %10
}

; Function Attrs: inlinehint nounwind uwtable
define internal i32 @fls_u64(i64 noundef %0) #5 {
  %2 = alloca i64, align 8
  store i64 %0, ptr %2, align 8, !tbaa !10
  %3 = load i64, ptr %2, align 8, !tbaa !10
  %4 = call i32 @fls_lu(i64 noundef %3)
  ret i32 %4
}

; Function Attrs: inlinehint nounwind uwtable
define internal i64 @pow2_ceil_u64(i64 noundef %0) #5 {
  %2 = alloca i64, align 8
  %3 = alloca i64, align 8
  %4 = alloca i64, align 8
  store i64 %0, ptr %3, align 8, !tbaa !10
  %5 = load i64, ptr %3, align 8, !tbaa !10
  %6 = icmp ule i64 %5, 1
  %7 = xor i1 %6, true
  %8 = xor i1 %7, true
  %9 = zext i1 %8 to i32
  %10 = sext i32 %9 to i64
  %11 = call i64 @llvm.expect.i64(i64 %10, i64 0)
  %12 = icmp ne i64 %11, 0
  br i1 %12, label %13, label %15

13:                                               ; preds = %1
  %14 = load i64, ptr %3, align 8, !tbaa !10
  store i64 %14, ptr %2, align 8
  br label %26

15:                                               ; preds = %1
  call void @llvm.lifetime.start.p0(i64 8, ptr %4) #11
  %16 = load i64, ptr %3, align 8, !tbaa !10
  %17 = sub i64 %16, 1
  %18 = call i32 @fls_u64(i64 noundef %17)
  %19 = zext i32 %18 to i64
  store i64 %19, ptr %4, align 8, !tbaa !10
  br label %20

20:                                               ; preds = %15
  br label %21

21:                                               ; preds = %20
  br label %22

22:                                               ; preds = %21
  %23 = load i64, ptr %4, align 8, !tbaa !10
  %24 = add i64 %23, 1
  %25 = shl i64 1, %24
  store i64 %25, ptr %2, align 8
  call void @llvm.lifetime.end.p0(i64 8, ptr %4) #11
  br label %26

26:                                               ; preds = %22, %13
  %27 = load i64, ptr %2, align 8
  ret i64 %27
}

; Function Attrs: inlinehint nounwind uwtable
define internal i32 @lg_floor(i64 noundef %0) #5 {
  %2 = alloca i64, align 8
  store i64 %0, ptr %2, align 8, !tbaa !10
  %3 = load i64, ptr %2, align 8, !tbaa !10
  %4 = icmp ne i64 %3, 0
  call void @llvm.assume(i1 %4)
  %5 = load i64, ptr %2, align 8, !tbaa !10
  %6 = call i32 @fls_u64(i64 noundef %5)
  ret i32 %6
}

; Function Attrs: inlinehint nounwind uwtable
define internal i64 @pow2_ceil_zu(i64 noundef %0) #5 {
  %2 = alloca i64, align 8
  store i64 %0, ptr %2, align 8, !tbaa !10
  %3 = load i64, ptr %2, align 8, !tbaa !10
  %4 = call i64 @pow2_ceil_u64(i64 noundef %3)
  ret i64 %4
}

; Function Attrs: alwaysinline nounwind uwtable
define internal i32 @sz_size2index_lookup_impl(i64 noundef %0) #2 {
  %2 = alloca i64, align 8
  store i64 %0, ptr %2, align 8, !tbaa !10
  br label %3

3:                                                ; preds = %1
  br label %4

4:                                                ; preds = %3
  %5 = load i64, ptr %2, align 8, !tbaa !10
  %6 = add i64 %5, 8
  %7 = sub i64 %6, 1
  %8 = lshr i64 %7, 3
  %9 = getelementptr inbounds nuw [0 x i8], ptr @duckdb_je_sz_size2index_tab, i64 0, i64 %8
  %10 = load i8, ptr %9, align 1, !tbaa !25
  %11 = zext i8 %10 to i32
  ret i32 %11
}

; Function Attrs: inlinehint nounwind uwtable
define internal i32 @sz_size2index_compute(i64 noundef %0) #5 {
  %2 = alloca i32, align 4
  %3 = alloca i64, align 8
  %4 = alloca i32, align 4
  %5 = alloca i32, align 4
  %6 = alloca i32, align 4
  %7 = alloca i32, align 4
  %8 = alloca i32, align 4
  %9 = alloca i32, align 4
  %10 = alloca i64, align 8
  %11 = alloca i32, align 4
  %12 = alloca i32, align 4
  store i64 %0, ptr %3, align 8, !tbaa !10
  %13 = load i64, ptr %3, align 8, !tbaa !10
  %14 = icmp ugt i64 %13, 8070450532247928832
  %15 = xor i1 %14, true
  %16 = xor i1 %15, true
  %17 = zext i1 %16 to i32
  %18 = sext i32 %17 to i64
  %19 = call i64 @llvm.expect.i64(i64 %18, i64 0)
  %20 = icmp ne i64 %19, 0
  br i1 %20, label %21, label %22

21:                                               ; preds = %1
  store i32 232, ptr %2, align 4
  br label %84

22:                                               ; preds = %1
  %23 = load i64, ptr %3, align 8, !tbaa !10
  %24 = icmp eq i64 %23, 0
  br i1 %24, label %25, label %26

25:                                               ; preds = %22
  store i32 0, ptr %2, align 4
  br label %84

26:                                               ; preds = %22
  %27 = load i64, ptr %3, align 8, !tbaa !10
  %28 = icmp ule i64 %27, 8
  br i1 %28, label %29, label %43

29:                                               ; preds = %26
  call void @llvm.lifetime.start.p0(i64 4, ptr %4) #11
  store i32 3, ptr %4, align 4, !tbaa !20
  call void @llvm.lifetime.start.p0(i64 4, ptr %5) #11
  %30 = load i64, ptr %3, align 8, !tbaa !10
  %31 = call i64 @pow2_ceil_zu(i64 noundef %30)
  %32 = call i32 @lg_floor(i64 noundef %31)
  store i32 %32, ptr %5, align 4, !tbaa !20
  %33 = load i32, ptr %5, align 4, !tbaa !20
  %34 = load i32, ptr %4, align 4, !tbaa !20
  %35 = icmp ult i32 %33, %34
  br i1 %35, label %36, label %37

36:                                               ; preds = %29
  br label %41

37:                                               ; preds = %29
  %38 = load i32, ptr %5, align 4, !tbaa !20
  %39 = load i32, ptr %4, align 4, !tbaa !20
  %40 = sub i32 %38, %39
  br label %41

41:                                               ; preds = %37, %36
  %42 = phi i32 [ 0, %36 ], [ %40, %37 ]
  store i32 %42, ptr %2, align 4
  call void @llvm.lifetime.end.p0(i64 4, ptr %5) #11
  call void @llvm.lifetime.end.p0(i64 4, ptr %4) #11
  br label %84

43:                                               ; preds = %26
  call void @llvm.lifetime.start.p0(i64 4, ptr %6) #11
  %44 = load i64, ptr %3, align 8, !tbaa !10
  %45 = shl i64 %44, 1
  %46 = sub i64 %45, 1
  %47 = call i32 @lg_floor(i64 noundef %46)
  store i32 %47, ptr %6, align 4, !tbaa !20
  call void @llvm.lifetime.start.p0(i64 4, ptr %7) #11
  %48 = load i32, ptr %6, align 4, !tbaa !20
  %49 = icmp ult i32 %48, 6
  br i1 %49, label %50, label %51

50:                                               ; preds = %43
  br label %54

51:                                               ; preds = %43
  %52 = load i32, ptr %6, align 4, !tbaa !20
  %53 = sub i32 %52, 6
  br label %54

54:                                               ; preds = %51, %50
  %55 = phi i32 [ 0, %50 ], [ %53, %51 ]
  store i32 %55, ptr %7, align 4, !tbaa !20
  call void @llvm.lifetime.start.p0(i64 4, ptr %8) #11
  %56 = load i32, ptr %7, align 4, !tbaa !20
  %57 = shl i32 %56, 2
  store i32 %57, ptr %8, align 4, !tbaa !20
  call void @llvm.lifetime.start.p0(i64 4, ptr %9) #11
  %58 = load i32, ptr %6, align 4, !tbaa !20
  %59 = icmp ult i32 %58, 7
  br i1 %59, label %60, label %61

60:                                               ; preds = %54
  br label %65

61:                                               ; preds = %54
  %62 = load i32, ptr %6, align 4, !tbaa !20
  %63 = sub i32 %62, 2
  %64 = sub i32 %63, 1
  br label %65

65:                                               ; preds = %61, %60
  %66 = phi i32 [ 4, %60 ], [ %64, %61 ]
  store i32 %66, ptr %9, align 4, !tbaa !20
  call void @llvm.lifetime.start.p0(i64 8, ptr %10) #11
  %67 = load i32, ptr %9, align 4, !tbaa !20
  %68 = zext i32 %67 to i64
  %69 = shl i64 -1, %68
  store i64 %69, ptr %10, align 8, !tbaa !10
  call void @llvm.lifetime.start.p0(i64 4, ptr %11) #11
  %70 = load i64, ptr %3, align 8, !tbaa !10
  %71 = sub i64 %70, 1
  %72 = load i64, ptr %10, align 8, !tbaa !10
  %73 = and i64 %71, %72
  %74 = load i32, ptr %9, align 4, !tbaa !20
  %75 = zext i32 %74 to i64
  %76 = lshr i64 %73, %75
  %77 = and i64 %76, 3
  %78 = trunc i64 %77 to i32
  store i32 %78, ptr %11, align 4, !tbaa !20
  call void @llvm.lifetime.start.p0(i64 4, ptr %12) #11
  %79 = load i32, ptr %8, align 4, !tbaa !20
  %80 = add i32 1, %79
  %81 = load i32, ptr %11, align 4, !tbaa !20
  %82 = add i32 %80, %81
  store i32 %82, ptr %12, align 4, !tbaa !20
  %83 = load i32, ptr %12, align 4, !tbaa !20
  store i32 %83, ptr %2, align 4
  call void @llvm.lifetime.end.p0(i64 4, ptr %12) #11
  call void @llvm.lifetime.end.p0(i64 4, ptr %11) #11
  call void @llvm.lifetime.end.p0(i64 8, ptr %10) #11
  call void @llvm.lifetime.end.p0(i64 4, ptr %9) #11
  call void @llvm.lifetime.end.p0(i64 4, ptr %8) #11
  call void @llvm.lifetime.end.p0(i64 4, ptr %7) #11
  call void @llvm.lifetime.end.p0(i64 4, ptr %6) #11
  br label %84

84:                                               ; preds = %65, %41, %25, %21
  %85 = load i32, ptr %2, align 4
  ret i32 %85
}

; Function Attrs: alwaysinline nounwind uwtable
define internal i32 @sz_size2index_lookup(i64 noundef %0) #2 {
  %2 = alloca i64, align 8
  %3 = alloca i32, align 4
  store i64 %0, ptr %2, align 8, !tbaa !10
  call void @llvm.lifetime.start.p0(i64 4, ptr %3) #11
  %4 = load i64, ptr %2, align 8, !tbaa !10
  %5 = call i32 @sz_size2index_lookup_impl(i64 noundef %4)
  store i32 %5, ptr %3, align 4, !tbaa !20
  br label %6

6:                                                ; preds = %1
  br label %7

7:                                                ; preds = %6
  br label %8

8:                                                ; preds = %7
  %9 = load i32, ptr %3, align 4, !tbaa !20
  call void @llvm.lifetime.end.p0(i64 4, ptr %3) #11
  ret i32 %9
}

; Function Attrs: alwaysinline nounwind uwtable
define internal i32 @sz_size2index(i64 noundef %0) #2 {
  %2 = alloca i32, align 4
  %3 = alloca i64, align 8
  store i64 %0, ptr %3, align 8, !tbaa !10
  %4 = load i64, ptr %3, align 8, !tbaa !10
  %5 = icmp ule i64 %4, 4096
  %6 = xor i1 %5, true
  %7 = xor i1 %6, true
  %8 = zext i1 %7 to i32
  %9 = sext i32 %8 to i64
  %10 = call i64 @llvm.expect.i64(i64 %9, i64 1)
  %11 = icmp ne i64 %10, 0
  br i1 %11, label %12, label %15

12:                                               ; preds = %1
  %13 = load i64, ptr %3, align 8, !tbaa !10
  %14 = call i32 @sz_size2index_lookup(i64 noundef %13)
  store i32 %14, ptr %2, align 4
  br label %18

15:                                               ; preds = %1
  %16 = load i64, ptr %3, align 8, !tbaa !10
  %17 = call i32 @sz_size2index_compute(i64 noundef %16)
  store i32 %17, ptr %2, align 4
  br label %18

18:                                               ; preds = %15, %12
  %19 = load i32, ptr %2, align 4
  ret i32 %19
}

; Function Attrs: inlinehint nounwind uwtable
define internal void @arena_sdalloc_no_tcache(ptr noundef %0, ptr noundef %1, i64 noundef %2) #5 {
  %4 = alloca ptr, align 8
  %5 = alloca ptr, align 8
  %6 = alloca i64, align 8
  %7 = alloca %struct.emap_alloc_ctx_t, align 4
  store ptr %0, ptr %4, align 8, !tbaa !3
  store ptr %1, ptr %5, align 8, !tbaa !24
  store i64 %2, ptr %6, align 8, !tbaa !10
  br label %8

8:                                                ; preds = %3
  br label %9

9:                                                ; preds = %8
  br label %10

10:                                               ; preds = %9
  br label %11

11:                                               ; preds = %10
  call void @llvm.lifetime.start.p0(i64 8, ptr %7) #11
  %12 = load i64, ptr %6, align 8, !tbaa !10
  %13 = call i32 @sz_size2index(i64 noundef %12)
  %14 = getelementptr inbounds nuw %struct.emap_alloc_ctx_t, ptr %7, i32 0, i32 0
  store i32 %13, ptr %14, align 4, !tbaa !140
  %15 = getelementptr inbounds nuw %struct.emap_alloc_ctx_t, ptr %7, i32 0, i32 0
  %16 = load i32, ptr %15, align 4, !tbaa !140
  %17 = zext i32 %16 to i64
  %18 = icmp ult i64 %17, 36
  %19 = getelementptr inbounds nuw %struct.emap_alloc_ctx_t, ptr %7, i32 0, i32 1
  %20 = zext i1 %18 to i8
  store i8 %20, ptr %19, align 4, !tbaa !142
  %21 = getelementptr inbounds nuw %struct.emap_alloc_ctx_t, ptr %7, i32 0, i32 1
  %22 = load i8, ptr %21, align 4, !tbaa !142, !range !14, !noundef !15
  %23 = trunc i8 %22 to i1
  %24 = xor i1 %23, true
  %25 = xor i1 %24, true
  %26 = zext i1 %25 to i32
  %27 = sext i32 %26 to i64
  %28 = call i64 @llvm.expect.i64(i64 %27, i64 1)
  %29 = icmp ne i64 %28, 0
  br i1 %29, label %30, label %33

30:                                               ; preds = %11
  %31 = load ptr, ptr %4, align 8, !tbaa !3
  %32 = load ptr, ptr %5, align 8, !tbaa !24
  call void @duckdb_je_arena_dalloc_small(ptr noundef %31, ptr noundef %32)
  br label %38

33:                                               ; preds = %11
  %34 = load ptr, ptr %4, align 8, !tbaa !3
  %35 = load ptr, ptr %5, align 8, !tbaa !24
  %36 = getelementptr inbounds nuw %struct.emap_alloc_ctx_t, ptr %7, i32 0, i32 0
  %37 = load i32, ptr %36, align 4, !tbaa !140
  call void @arena_dalloc_large_no_tcache(ptr noundef %34, ptr noundef %35, i32 noundef %37)
  br label %38

38:                                               ; preds = %33, %30
  call void @llvm.lifetime.end.p0(i64 8, ptr %7) #11
  ret void
}